target datalayout = "e-m:e-p270:32:32-p271:32:32-p272:64:64-i64:64-i128:128-f80:128-n8:16:32:64-S128"
target triple = "x86_64-pc-linux-gnu"

%struct.SDL_DriverGameCube_Context = type { i8, [4 x i32], [4 x i8], [24 x i8], [24 x i8], [4 x i8], [5 x i8], i8, i8 }

; Function Attrs: nounwind uwtable
define internal void @SDL_JoystickGameCubeRumbleBrakeHintChanged(ptr noundef %0, ptr noundef %1, ptr noundef %2, ptr noundef %3) #0 {
  %5 = alloca ptr, align 8
  %6 = alloca ptr, align 8
  %7 = alloca ptr, align 8
  %8 = alloca ptr, align 8
  %9 = alloca ptr, align 8
  store ptr %0, ptr %5, align 8
  store ptr %1, ptr %6, align 8
  store ptr %2, ptr %7, align 8
  store ptr %3, ptr %8, align 8
  %10 = load ptr, ptr %8, align 8
  %11 = icmp ne ptr %10, null
  br i1 %11, label %12, label %19

12:                                               ; preds = %4
  call void @llvm.lifetime.start.p0(i64 8, ptr %9) #5
  %13 = load ptr, ptr %5, align 8
  store ptr %13, ptr %9, align 8
  %14 = load ptr, ptr %8, align 8
  %15 = call zeroext i1 @SDL_GetStringBoolean(ptr noundef %14, i1 noundef zeroext false)
  %16 = load ptr, ptr %9, align 8
  %17 = getelementptr inbounds nuw %struct.SDL_DriverGameCube_Context, ptr %16, i32 0, i32 8
  %18 = zext i1 %15 to i8
  store i8 %18, ptr %17, align 2
  call void @llvm.lifetime.end.p0(i64 8, ptr %9) #5
  br label %19

19:                                               ; preds = %12, %4
  ret void
}