; Function Attrs: nounwind uwtable
define internal void @SDL_JoystickGameCubeRumbleBrakeHintChanged(ptr noundef writeonly captures(none) %0, ptr readnone captures(none) %1, ptr readnone captures(none) %2, ptr noundef %3) #0 {
  %.not = icmp eq ptr %3, null
  br i1 %.not, label %9, label %5

5:                                                ; preds = %4
  %6 = tail call zeroext i1 @SDL_GetStringBoolean(ptr noundef nonnull %3, i1 noundef zeroext false) #7
  %7 = getelementptr inbounds nuw i8, ptr %0, i64 82
  %8 = zext i1 %6 to i8
  store i8 %8, ptr %7, align 2
  br label %9

9:                                                ; preds = %5, %4
  ret void
}